ccopy_reg
_reconstructor
p0
(cgoogle.oauth2.credentials
Credentials
p1
c__builtin__
object
p2
Ntp3
Rp4
(dp5
S'_quota_project_id'
p6
NsS'_token_uri'
p7
Vhttps://oauth2.googleapis.com/token
p8
sS'_client_secret'
p9
V_2H9TxuEqCT0ciZSQCbdr-LH
p10
sS'_id_token'
p11
NsS'token'
p12
Vya29.Il-2B24dRKEeWgrcmx5nHbxFFu5Z_GYx89V5nQg7ycrK6pqxLi1lcANGoscbf_2vIrc7p7w9qTEP6_2mpjUGUmg-mBhWAujlh8N3tMRNWCRCsXPA0Hq3orxyAnZ9tey6IA
p13
sS'_refresh_token'
p14
V1//0hRLWA3leSw5pCgYIARAAGBESNwF-L9Irei8WBUbMCzlHw1QR3OIqqOC-SzMFWXpbNlV0Ubn7OdQTVD6eoyxaYc3YvsS_mvQ8RwQ
p15
sS'_scopes'
p16
(lp17
S'https://www.googleapis.com/auth/spreadsheets.readonly'
p18
asS'_client_id'
p19
V15286849271-r757nfjpnehn96br055vfsgm791a95ae.apps.googleusercontent.com
p20
sS'expiry'
p21
cdatetime
datetime
p22
(S'\x07\xe3\x0c\x13\x10\x06\x00\x0b\x1f\x01'
p23
tp24
Rp25
sb.