ccopy_reg
_reconstructor
p0
(cgoogle.oauth2.credentials
Credentials
p1
c__builtin__
object
p2
Ntp3
Rp4
(dp5
S'_quota_project_id'
p6
NsS'_token_uri'
p7
Vhttps://oauth2.googleapis.com/token
p8
sS'_client_secret'
p9
VXIDVOsm1pHo5AZxC59QfNkMO
p10
sS'_id_token'
p11
NsS'token'
p12
Vya29.Il-2B2-P-CYAV6jpTRbH8CbpfW-gkQU7btY_0Yg_pSchb-cNSVEv3-yVGzY9hjlj2jMCTmso2HNlofaw_YmR6s24NkfMnuW3FwsYIBiRucE0JFx-RGnvfulosDvbuLXdtw
p13
sS'_refresh_token'
p14
V1//0hCC8bG_XKNpTCgYIARAAGBESNwF-L9IrBnddPNCO1-JypzDfLADQF2ewaryyZTybe5m501pB1fdL8OynOD1C24bC0X_N5vJAPZo
p15
sS'_scopes'
p16
(lp17
S'https://www.googleapis.com/auth/spreadsheets'
p18
asS'_client_id'
p19
V246407631808-8g8s7gaa2t1q1774r233mrt96nuongja.apps.googleusercontent.com
p20
sS'expiry'
p21
cdatetime
datetime
p22
(S'\x07\xe3\x0c\x14\x15+3\x06\xca\xe7'
p23
tp24
Rp25
sb.